; Function Attrs: mustprogress uwtable
define internal void @_ZZN12_GLOBAL__N_143TailCallsModifiesTest_WithMetadataFrom_Test8TestBodyEvEN17ForwardingLogSink4SendERKN4absl8LogEntryE(ptr nocapture nonnull readnone align 8 %this, ptr noundef nonnull align 8 dereferenceable(136) %entry1) unnamed_addr #3 align 2 personality ptr @__gxx_personality_v0 {
entry:
  %ref.tmp7 = alloca %"class.absl::log_internal::LogMessage", align 8
  %severity_.i = getelementptr inbounds i8, ptr %entry1, i64 40
  %0 = load i32, ptr %severity_.i, align 8
  %spec.store.select.i = tail call i32 @llvm.smax.i32(i32 %0, i32 0)
  %cmp1.i = icmp sgt i32 %0, 3
  %spec.store.select1.i = select i1 %cmp1.i, i32 2, i32 %spec.store.select.i
  call void @_ZN4absl12log_internal10LogMessageC1EPKciNS_11LogSeverityE(ptr noundef nonnull align 8 dereferenceable(16) %ref.tmp7, ptr noundef nonnull @.str.3, i32 noundef 144, i32 noundef %spec.store.select1.i) #30
  %call9 = invoke noundef nonnull align 8 dereferenceable(16) ptr @_ZN4absl12log_internal10LogMessage16WithMetadataFromERKNS_8LogEntryE(ptr noundef nonnull align 8 dereferenceable(16) %ref.tmp7, ptr noundef nonnull align 8 dereferenceable(136) %entry1)
          to label %invoke.cont unwind label %lpad

invoke.cont:                                      ; preds = %entry
  invoke void @_ZN4absl12log_internal10LogMessage19CopyToEncodedBufferILNS1_10StringTypeE0EEEvSt17basic_string_viewIcSt11char_traitsIcEE(ptr noundef nonnull align 8 dereferenceable(16) %call9, i64 11, ptr nonnull @.str.71)
          to label %invoke.cont10 unwind label %lpad

invoke.cont10:                                    ; preds = %invoke.cont
  %text_message_with_prefix_and_newline_and_nul_.i = getelementptr inbounds i8, ptr %entry1, i64 64
  %1 = load ptr, ptr %text_message_with_prefix_and_newline_and_nul_.i, align 8
  %prefix_len_.i = getelementptr inbounds i8, ptr %entry1, i64 80
  %2 = load i64, ptr %prefix_len_.i, align 8
  %add.ptr.i = getelementptr inbounds i8, ptr %1, i64 %2
  %len_.i.i = getelementptr inbounds i8, ptr %entry1, i64 72
  %3 = load i64, ptr %len_.i.i, align 8
  %reass.sub = sub i64 %3, %2
  %sub5.i = add i64 %reass.sub, -2
  %call15 = invoke noundef nonnull align 8 dereferenceable(16) ptr @_ZN4absl12log_internal10LogMessagelsESt17basic_string_viewIcSt11char_traitsIcEE(ptr noundef nonnull align 8 dereferenceable(16) %call9, i64 %sub5.i, ptr %add.ptr.i)
          to label %invoke.cont14 unwind label %lpad

invoke.cont14:                                    ; preds = %invoke.cont10
  call void @_ZN4absl12log_internal10LogMessageD1Ev(ptr noundef nonnull align 8 dereferenceable(16) %ref.tmp7) #31
  ret void

lpad:                                             ; preds = %invoke.cont, %invoke.cont10, %entry
  %4 = landingpad { ptr, i32 }
          cleanup
  call void @_ZN4absl12log_internal10LogMessageD1Ev(ptr noundef nonnull align 8 dereferenceable(16) %ref.tmp7) #31
  resume { ptr, i32 } %4
}